; Function Attrs: nofree norecurse nosync nounwind memory(argmem: readwrite) uwtable
define internal void @h264_h_loop_filter_chroma422_mbaff_8_c(ptr noundef captures(none) %0, i64 noundef %1, i32 noundef %2, i32 noundef %3, ptr noundef readonly captures(none) %4) #1 {
  %6 = shl nsw i64 %1, 1
  br label %7

7:                                                ; preds = %5, %.loopexit
  %indvars.iv = phi i64 [ 0, %5 ], [ %indvars.iv.next, %.loopexit ]
  %.0.i7 = phi ptr [ %0, %5 ], [ %.1.i, %.loopexit ]
  %8 = getelementptr inbounds nuw i8, ptr %4, i64 %indvars.iv
  %9 = load i8, ptr %8, align 1, !tbaa !42
  %10 = sext i8 %9 to i32
  %11 = icmp slt i8 %9, 1
  br i1 %11, label %13, label %.preheader

.preheader:                                       ; preds = %7
  %12 = sub nsw i32 0, %10
  br label %15

13:                                               ; preds = %7
  %14 = getelementptr inbounds i8, ptr %.0.i7, i64 %6
  br label %.loopexit

15:                                               ; preds = %.preheader, %53
  %.2.i5 = phi ptr [ %.0.i7, %.preheader ], [ %54, %53 ]
  %16 = phi i1 [ true, %.preheader ], [ false, %53 ]
  %17 = getelementptr inbounds i8, ptr %.2.i5, i64 -1
  %18 = load i8, ptr %17, align 1, !tbaa !42
  %19 = zext i8 %18 to i32
  %20 = getelementptr inbounds i8, ptr %.2.i5, i64 -2
  %21 = load i8, ptr %20, align 1, !tbaa !42
  %22 = zext i8 %21 to i32
  %23 = load i8, ptr %.2.i5, align 1, !tbaa !42
  %24 = zext i8 %23 to i32
  %25 = getelementptr inbounds nuw i8, ptr %.2.i5, i64 1
  %26 = load i8, ptr %25, align 1, !tbaa !42
  %27 = zext i8 %26 to i32
  %28 = sub nsw i32 %19, %24
  %29 = tail call i32 @llvm.abs.i32(i32 %28, i1 true)
  %30 = icmp slt i32 %29, %2
  br i1 %30, label %31, label %53

31:                                               ; preds = %15
  %32 = sub nsw i32 %22, %19
  %33 = tail call i32 @llvm.abs.i32(i32 %32, i1 true)
  %34 = icmp slt i32 %33, %3
  br i1 %34, label %35, label %53

35:                                               ; preds = %31
  %36 = sub nsw i32 %27, %24
  %37 = tail call i32 @llvm.abs.i32(i32 %36, i1 true)
  %38 = icmp samesign ult i32 %37, %3
  br i1 %38, label %39, label %53

39:                                               ; preds = %35
  %40 = sub nsw i32 %24, %19
  %41 = shl nsw i32 %40, 2
  %42 = add nuw nsw i32 %22, 4
  %43 = sub nsw i32 %42, %27
  %44 = add nsw i32 %43, %41
  %45 = ashr i32 %44, 3
  %46 = icmp slt i32 %45, %12
  %..i.i = tail call i32 @llvm.smin.i32(i32 %45, i32 %10)
  %.0.i.i = select i1 %46, i32 %12, i32 %..i.i
  %47 = add nsw i32 %.0.i.i, %19
  %.not.i69.i = icmp ult i32 %47, 256
  %isnotneg.i70.i = icmp sgt i32 %47, -1
  %48 = sext i1 %isnotneg.i70.i to i8
  %49 = trunc nuw i32 %47 to i8
  %.0.i71.i = select i1 %.not.i69.i, i8 %49, i8 %48
  store i8 %.0.i71.i, ptr %17, align 1, !tbaa !42
  %50 = sub nsw i32 %24, %.0.i.i
  %.not.i.i = icmp ult i32 %50, 256
  %isnotneg.i.i = icmp sgt i32 %50, -1
  %51 = sext i1 %isnotneg.i.i to i8
  %52 = trunc nuw i32 %50 to i8
  %.0.i68.i = select i1 %.not.i.i, i8 %52, i8 %51
  store i8 %.0.i68.i, ptr %.2.i5, align 1, !tbaa !42
  br label %53

53:                                               ; preds = %39, %35, %31, %15
  %54 = getelementptr inbounds i8, ptr %.2.i5, i64 %1
  br i1 %16, label %15, label %.loopexit, !llvm.loop !112

.loopexit:                                        ; preds = %53, %13
  %.1.i = phi ptr [ %14, %13 ], [ %54, %53 ]
  %indvars.iv.next = add nuw nsw i64 %indvars.iv, 1
  %exitcond.not = icmp eq i64 %indvars.iv.next, 4
  br i1 %exitcond.not, label %h264_loop_filter_chroma_8_c.exit, label %7, !llvm.loop !113

h264_loop_filter_chroma_8_c.exit:                 ; preds = %.loopexit
  ret void
}